; Function Attrs: nounwind uwtable
define range(i32 -1, 1) i32 @H5F__get_sbe_addr_test(i64 noundef %0, ptr nocapture noundef writeonly %1) local_unnamed_addr #0 {
  %3 = tail call ptr @H5VL_object_verify(i64 noundef %0, i32 noundef 1) #2
  %4 = icmp eq ptr %3, null
  br i1 %4, label %5, label %9

5:                                                ; preds = %2
  %6 = load i64, ptr @H5E_ARGS_g, align 8
  %7 = load i64, ptr @H5E_BADTYPE_g, align 8
  %8 = tail call i32 (ptr, ptr, i32, i64, i64, ptr, ...) @H5E_printf_stack(ptr noundef nonnull @.str, ptr noundef nonnull @__func__.H5F__get_sbe_addr_test, i32 noundef 200, i64 noundef %6, i64 noundef %7, ptr noundef nonnull @.str.1) #2
  br label %16

9:                                                ; preds = %2
  %10 = getelementptr inbounds i8, ptr %3, i64 16
  %11 = load ptr, ptr %10, align 8
  %12 = getelementptr inbounds i8, ptr %11, i64 8
  %13 = load ptr, ptr %12, align 8
  %14 = getelementptr inbounds i8, ptr %13, i64 280
  %15 = load i64, ptr %14, align 8
  store i64 %15, ptr %1, align 8
  br label %16

16:                                               ; preds = %9, %5
  %.0 = phi i32 [ -1, %5 ], [ 0, %9 ]
  ret i32 %.0
}